; Function Attrs: nounwind uwtable
define ptr @l_Lean_JsonRpc_beqResponse____x40_Lean_Data_JsonRpc___hyg_1307____rarg(ptr noundef %0, ptr noundef %1, ptr noundef %2) #0 {
  %4 = getelementptr inbounds nuw i8, ptr %1, i64 8
  %5 = load ptr, ptr %4, align 8, !tbaa !4
  %6 = ptrtoint ptr %5 to i64
  %7 = and i64 %6, 1
  %.not = icmp eq i64 %7, 0
  br i1 %.not, label %8, label %lean_inc.exit32

8:                                                ; preds = %3
  %.val.i = load i32, ptr %5, align 4, !tbaa !10
  %9 = icmp sgt i32 %.val.i, 0
  br i1 %9, label %10, label %12, !prof !13

10:                                               ; preds = %8
  %11 = add nuw i32 %.val.i, 1
  store i32 %11, ptr %5, align 4, !tbaa !10
  br label %lean_inc.exit32

12:                                               ; preds = %8
  %.not.i45 = icmp eq i32 %.val.i, 0
  br i1 %.not.i45, label %lean_inc.exit32, label %13

13:                                               ; preds = %12
  tail call void @lean_inc_ref_cold(ptr noundef nonnull %5) #7
  br label %lean_inc.exit32

lean_inc.exit32:                                  ; preds = %13, %12, %10, %3
  %14 = getelementptr inbounds nuw i8, ptr %1, i64 16
  %15 = load ptr, ptr %14, align 8, !tbaa !4
  %16 = ptrtoint ptr %15 to i64
  %17 = and i64 %16, 1
  %.not55 = icmp eq i64 %17, 0
  br i1 %.not55, label %18, label %lean_inc.exit31

18:                                               ; preds = %lean_inc.exit32
  %.val.i46 = load i32, ptr %15, align 4, !tbaa !10
  %19 = icmp sgt i32 %.val.i46, 0
  br i1 %19, label %20, label %22, !prof !13

20:                                               ; preds = %18
  %21 = add nuw i32 %.val.i46, 1
  store i32 %21, ptr %15, align 4, !tbaa !10
  br label %lean_inc.exit31

22:                                               ; preds = %18
  %.not.i47 = icmp eq i32 %.val.i46, 0
  br i1 %.not.i47, label %lean_inc.exit31, label %23

23:                                               ; preds = %22
  tail call void @lean_inc_ref_cold(ptr noundef nonnull %15) #7
  br label %lean_inc.exit31

lean_inc.exit31:                                  ; preds = %23, %22, %20, %lean_inc.exit32
  %24 = ptrtoint ptr %1 to i64
  %25 = and i64 %24, 1
  %.not56 = icmp eq i64 %25, 0
  br i1 %.not56, label %26, label %lean_dec.exit29

26:                                               ; preds = %lean_inc.exit31
  %27 = load i32, ptr %1, align 4, !tbaa !10
  %28 = icmp sgt i32 %27, 1
  br i1 %28, label %29, label %31, !prof !13

29:                                               ; preds = %26
  %30 = add nsw i32 %27, -1
  store i32 %30, ptr %1, align 4, !tbaa !10
  br label %lean_dec.exit29

31:                                               ; preds = %26
  %.not.i = icmp eq i32 %27, 0
  br i1 %.not.i, label %lean_dec.exit29, label %32

32:                                               ; preds = %31
  tail call void @lean_dec_ref_cold(ptr noundef nonnull %1) #7
  br label %lean_dec.exit29

lean_dec.exit29:                                  ; preds = %32, %31, %29, %lean_inc.exit31
  %33 = getelementptr inbounds nuw i8, ptr %2, i64 8
  %34 = load ptr, ptr %33, align 8, !tbaa !4
  %35 = ptrtoint ptr %34 to i64
  %36 = and i64 %35, 1
  %.not57 = icmp eq i64 %36, 0
  br i1 %.not57, label %37, label %lean_inc.exit30

37:                                               ; preds = %lean_dec.exit29
  %.val.i49 = load i32, ptr %34, align 4, !tbaa !10
  %38 = icmp sgt i32 %.val.i49, 0
  br i1 %38, label %39, label %41, !prof !13

39:                                               ; preds = %37
  %40 = add nuw i32 %.val.i49, 1
  store i32 %40, ptr %34, align 4, !tbaa !10
  br label %lean_inc.exit30

41:                                               ; preds = %37
  %.not.i50 = icmp eq i32 %.val.i49, 0
  br i1 %.not.i50, label %lean_inc.exit30, label %42

42:                                               ; preds = %41
  tail call void @lean_inc_ref_cold(ptr noundef nonnull %34) #7
  br label %lean_inc.exit30

lean_inc.exit30:                                  ; preds = %42, %41, %39, %lean_dec.exit29
  %43 = getelementptr inbounds nuw i8, ptr %2, i64 16
  %44 = load ptr, ptr %43, align 8, !tbaa !4
  %45 = ptrtoint ptr %44 to i64
  %46 = and i64 %45, 1
  %.not58 = icmp eq i64 %46, 0
  br i1 %.not58, label %47, label %lean_inc.exit

47:                                               ; preds = %lean_inc.exit30
  %.val.i52 = load i32, ptr %44, align 4, !tbaa !10
  %48 = icmp sgt i32 %.val.i52, 0
  br i1 %48, label %49, label %51, !prof !13

49:                                               ; preds = %47
  %50 = add nuw i32 %.val.i52, 1
  store i32 %50, ptr %44, align 4, !tbaa !10
  br label %lean_inc.exit

51:                                               ; preds = %47
  %.not.i53 = icmp eq i32 %.val.i52, 0
  br i1 %.not.i53, label %lean_inc.exit, label %52

52:                                               ; preds = %51
  tail call void @lean_inc_ref_cold(ptr noundef nonnull %44) #7
  br label %lean_inc.exit

lean_inc.exit:                                    ; preds = %52, %51, %49, %lean_inc.exit30
  %53 = ptrtoint ptr %2 to i64
  %54 = and i64 %53, 1
  %.not59 = icmp eq i64 %54, 0
  br i1 %.not59, label %55, label %lean_dec.exit28

55:                                               ; preds = %lean_inc.exit
  %56 = load i32, ptr %2, align 4, !tbaa !10
  %57 = icmp sgt i32 %56, 1
  br i1 %57, label %58, label %60, !prof !13

58:                                               ; preds = %55
  %59 = add nsw i32 %56, -1
  store i32 %59, ptr %2, align 4, !tbaa !10
  br label %lean_dec.exit28

60:                                               ; preds = %55
  %.not.i33 = icmp eq i32 %56, 0
  br i1 %.not.i33, label %lean_dec.exit28, label %61

61:                                               ; preds = %60
  tail call void @lean_dec_ref_cold(ptr noundef nonnull %2) #7
  br label %lean_dec.exit28

lean_dec.exit28:                                  ; preds = %61, %60, %58, %lean_inc.exit
  %62 = tail call zeroext i8 @l_Lean_JsonRpc_beqRequestID____x40_Lean_Data_JsonRpc___hyg_36_(ptr noundef %5, ptr noundef %34)
  br i1 %.not57, label %63, label %lean_dec.exit27

63:                                               ; preds = %lean_dec.exit28
  %64 = load i32, ptr %34, align 4, !tbaa !10
  %65 = icmp sgt i32 %64, 1
  br i1 %65, label %66, label %68, !prof !13

66:                                               ; preds = %63
  %67 = add nsw i32 %64, -1
  store i32 %67, ptr %34, align 4, !tbaa !10
  br label %lean_dec.exit27

68:                                               ; preds = %63
  %.not.i35 = icmp eq i32 %64, 0
  br i1 %.not.i35, label %lean_dec.exit27, label %69

69:                                               ; preds = %68
  tail call void @lean_dec_ref_cold(ptr noundef nonnull %34) #7
  br label %lean_dec.exit27

lean_dec.exit27:                                  ; preds = %69, %68, %66, %lean_dec.exit28
  br i1 %.not, label %70, label %lean_dec.exit26

70:                                               ; preds = %lean_dec.exit27
  %71 = load i32, ptr %5, align 4, !tbaa !10
  %72 = icmp sgt i32 %71, 1
  br i1 %72, label %73, label %75, !prof !13

73:                                               ; preds = %70
  %74 = add nsw i32 %71, -1
  store i32 %74, ptr %5, align 4, !tbaa !10
  br label %lean_dec.exit26

75:                                               ; preds = %70
  %.not.i37 = icmp eq i32 %71, 0
  br i1 %.not.i37, label %lean_dec.exit26, label %76

76:                                               ; preds = %75
  tail call void @lean_dec_ref_cold(ptr noundef nonnull %5) #7
  br label %lean_dec.exit26

lean_dec.exit26:                                  ; preds = %76, %75, %73, %lean_dec.exit27
  %77 = icmp eq i8 %62, 0
  br i1 %77, label %78, label %102

78:                                               ; preds = %lean_dec.exit26
  br i1 %.not58, label %79, label %lean_dec.exit25

79:                                               ; preds = %78
  %80 = load i32, ptr %44, align 4, !tbaa !10
  %81 = icmp sgt i32 %80, 1
  br i1 %81, label %82, label %84, !prof !13

82:                                               ; preds = %79
  %83 = add nsw i32 %80, -1
  store i32 %83, ptr %44, align 4, !tbaa !10
  br label %lean_dec.exit25

84:                                               ; preds = %79
  %.not.i39 = icmp eq i32 %80, 0
  br i1 %.not.i39, label %lean_dec.exit25, label %85

85:                                               ; preds = %84
  tail call void @lean_dec_ref_cold(ptr noundef nonnull %44) #7
  br label %lean_dec.exit25

lean_dec.exit25:                                  ; preds = %85, %84, %82, %78
  br i1 %.not55, label %86, label %lean_dec.exit24

86:                                               ; preds = %lean_dec.exit25
  %87 = load i32, ptr %15, align 4, !tbaa !10
  %88 = icmp sgt i32 %87, 1
  br i1 %88, label %89, label %91, !prof !13

89:                                               ; preds = %86
  %90 = add nsw i32 %87, -1
  store i32 %90, ptr %15, align 4, !tbaa !10
  br label %lean_dec.exit24

91:                                               ; preds = %86
  %.not.i41 = icmp eq i32 %87, 0
  br i1 %.not.i41, label %lean_dec.exit24, label %92

92:                                               ; preds = %91
  tail call void @lean_dec_ref_cold(ptr noundef nonnull %15) #7
  br label %lean_dec.exit24

lean_dec.exit24:                                  ; preds = %92, %91, %89, %lean_dec.exit25
  %93 = ptrtoint ptr %0 to i64
  %94 = and i64 %93, 1
  %.not60 = icmp eq i64 %94, 0
  br i1 %.not60, label %95, label %lean_dec.exit

95:                                               ; preds = %lean_dec.exit24
  %96 = load i32, ptr %0, align 4, !tbaa !10
  %97 = icmp sgt i32 %96, 1
  br i1 %97, label %98, label %100, !prof !13

98:                                               ; preds = %95
  %99 = add nsw i32 %96, -1
  store i32 %99, ptr %0, align 4, !tbaa !10
  br label %lean_dec.exit

100:                                              ; preds = %95
  %.not.i43 = icmp eq i32 %96, 0
  br i1 %.not.i43, label %lean_dec.exit, label %101

101:                                              ; preds = %100
  tail call void @lean_dec_ref_cold(ptr noundef nonnull %0) #7
  br label %lean_dec.exit

102:                                              ; preds = %lean_dec.exit26
  %103 = tail call ptr @lean_apply_2(ptr noundef %0, ptr noundef %15, ptr noundef %44) #7
  br label %lean_dec.exit

lean_dec.exit:                                    ; preds = %lean_dec.exit24, %98, %100, %101, %102
  %.0 = phi ptr [ %103, %102 ], [ inttoptr (i64 1 to ptr), %101 ], [ inttoptr (i64 1 to ptr), %100 ], [ inttoptr (i64 1 to ptr), %98 ], [ inttoptr (i64 1 to ptr), %lean_dec.exit24 ]
  ret ptr %.0
}